(lp0
I56054
aI1415
aI9265
aI4
aI2
aI7182
aI28182
aI8
aI0
aI0
aI0
aI0
aI0
aI0
aI1
aI65535
a.(lp0
I56069
aI1415
aI9265
aI4
aI2
aI7182
aI28182
aI8
aI0
aI0
aI0
aI0
aI0
aI0
aI1
aI65535
a.(lp0
I56080
aI1415
aI9265
aI4
aI2
aI7182
aI28182
aI8
aI0
aI0
aI0
aI0
aI0
aI0
aI1
aI65535
a.(lp0
I56090
aI1415
aI9265
aI4
aI2
aI7182
aI28182
aI8
aI0
aI0
aI0
aI0
aI0
aI0
aI1
aI65535
a.(lp0
I56101
aI1415
aI9265
aI4
aI2
aI7182
aI28182
aI8
aI0
aI0
aI0
aI0
aI0
aI0
aI1
aI65535
a.(lp0
I56112
aI1415
aI9265
aI4
aI2
aI7182
aI28182
aI8
aI0
aI0
aI0
aI0
aI0
aI0
aI1
aI65535
a.(lp0
I56122
aI1415
aI9265
aI4
aI2
aI7182
aI28182
aI8
aI0
aI0
aI0
aI0
aI0
aI0
aI1
aI65535
a.(lp0
I56133
aI1415
aI9265
aI4
aI2
aI7182
aI28182
aI8
aI0
aI0
aI0
aI0
aI0
aI0
aI1
aI65535
a.(lp0
I56143
aI1415
aI9265
aI4
aI2
aI7182
aI28182
aI8
aI0
aI0
aI0
aI0
aI0
aI0
aI1
aI65535
a.(lp0
I56154
aI1415
aI9265
aI4
aI2
aI7182
aI28182
aI8
aI0
aI0
aI0
aI0
aI0
aI0
aI1
aI65535
a.(lp0
I56165
aI1415
aI9265
aI4
aI2
aI7182
aI28182
aI8
aI0
aI0
aI0
aI0
aI0
aI0
aI1
aI65535
a.(lp0
I56175
aI1415
aI9265
aI4
aI2
aI7182
aI28182
aI8
aI0
aI0
aI0
aI0
aI0
aI0
aI1
aI65535
a.(lp0
I56186
aI1415
aI9265
aI4
aI2
aI7182
aI28182
aI8
aI0
aI0
aI0
aI0
aI0
aI0
aI1
aI65535
a.(lp0
I56196
aI1415
aI9265
aI4
aI2
aI7182
aI28182
aI8
aI0
aI0
aI0
aI0
aI0
aI0
aI1
aI65535
a.(lp0
I56207
aI1415
aI9265
aI4
aI2
aI7182
aI28182
aI8
aI0
aI0
aI0
aI0
aI0
aI0
aI1
aI65535
a.(lp0
I56218
aI1415
aI9265
aI4
aI2
aI7182
aI28182
aI8
aI0
aI0
aI0
aI0
aI0
aI0
aI1
aI65535
a.(lp0
I56228
aI1415
aI9265
aI4
aI2
aI7182
aI28182
aI8
aI0
aI0
aI0
aI0
aI0
aI0
aI1
aI65535
a.(lp0
I56239
aI1415
aI9265
aI4
aI2
aI7182
aI28182
aI8
aI0
aI0
aI0
aI0
aI0
aI0
aI1
aI65535
a.(lp0
I56249
aI1415
aI9265
aI4
aI2
aI7182
aI28182
aI8
aI0
aI0
aI0
aI0
aI0
aI0
aI1
aI65535
a.(lp0
I56260
aI1415
aI9265
aI4
aI2
aI7182
aI28182
aI8
aI0
aI0
aI0
aI0
aI0
aI0
aI1
aI65535
a.(lp0
I56271
aI1415
aI9265
aI4
aI2
aI7182
aI28182
aI8
aI0
aI0
aI0
aI0
aI0
aI0
aI1
aI65535
a.(lp0
I56281
aI1415
aI9265
aI4
aI2
aI7182
aI28182
aI8
aI0
aI0
aI0
aI0
aI0
aI0
aI1
aI65535
a.(lp0
I56292
aI1415
aI9265
aI4
aI2
aI7182
aI28182
aI8
aI0
aI0
aI0
aI0
aI0
aI0
aI1
aI65535
a.(lp0
I56302
aI1415
aI9265
aI4
aI2
aI7182
aI28182
aI8
aI0
aI0
aI0
aI0
aI0
aI0
aI1
aI65535
a.(lp0
I56313
aI1415
aI9265
aI4
aI2
aI7182
aI28182
aI8
aI0
aI0
aI0
aI0
aI0
aI0
aI1
aI65535
a.(lp0
I56324
aI1415
aI9265
aI4
aI2
aI7182
aI28182
aI8
aI0
aI0
aI0
aI0
aI0
aI0
aI1
aI65535
a.(lp0
I56334
aI1415
aI9265
aI4
aI2
aI7182
aI28182
aI8
aI0
aI0
aI0
aI0
aI0
aI0
aI1
aI65535
a.(lp0
I56345
aI1415
aI9265
aI4
aI2
aI7182
aI28182
aI8
aI0
aI0
aI0
aI0
aI0
aI0
aI1
aI65535
a.(lp0
I56355
aI1415
aI9265
aI4
aI2
aI7182
aI28182
aI8
aI0
aI0
aI0
aI0
aI0
aI0
aI1
aI65535
a.(lp0
I56366
aI1415
aI9265
aI4
aI2
aI7182
aI28182
aI8
aI0
aI0
aI0
aI0
aI0
aI0
aI1
aI65535
a.(lp0
I56377
aI1415
aI9265
aI4
aI2
aI7182
aI28182
aI8
aI0
aI0
aI0
aI0
aI0
aI0
aI1
aI65535
a.(lp0
I56387
aI1415
aI9265
aI4
aI2
aI7182
aI28182
aI8
aI0
aI0
aI0
aI0
aI0
aI0
aI1
aI65535
a.(lp0
I56398
aI1415
aI9265
aI4
aI2
aI7182
aI28182
aI8
aI0
aI0
aI0
aI0
aI0
aI0
aI1
aI65535
a.(lp0
I56509
aI1415
aI9265
aI4
aI2
aI7182
aI28182
aI8
aI0
aI0
aI0
aI0
aI0
aI0
aI1
aI65535
a.(lp0
I56519
aI1415
aI9265
aI4
aI2
aI7182
aI28182
aI8
aI0
aI0
aI0
aI0
aI0
aI0
aI1
aI65535
a.(lp0
I56530
aI1415
aI9265
aI4
aI2
aI7182
aI28182
aI8
aI0
aI0
aI0
aI0
aI0
aI0
aI1
aI65535
a.(lp0
I56540
aI1415
aI9265
aI4
aI2
aI7182
aI28182
aI8
aI0
aI0
aI0
aI0
aI0
aI0
aI1
aI65535
a.(lp0
I56551
aI1415
aI9265
aI4
aI2
aI7182
aI28182
aI8
aI0
aI0
aI0
aI0
aI0
aI0
aI1
aI65535
a.(lp0
I56561
aI1415
aI9265
aI4
aI2
aI7182
aI28182
aI8
aI0
aI0
aI0
aI0
aI0
aI0
aI1
aI65535
a.(lp0
I56572
aI1415
aI9265
aI4
aI2
aI7182
aI28182
aI8
aI0
aI0
aI0
aI0
aI0
aI0
aI1
aI65535
a.(lp0
I56582
aI1415
aI9265
aI4
aI2
aI7182
aI28182
aI8
aI0
aI0
aI0
aI0
aI0
aI0
aI1
aI65535
a.(lp0
I56693
aI1415
aI9265
aI4
aI2
aI7182
aI28182
aI8
aI0
aI0
aI0
aI0
aI0
aI0
aI1
aI65535
a.(lp0
I56703
aI1415
aI9265
aI4
aI2
aI7182
aI28182
aI8
aI0
aI0
aI0
aI0
aI0
aI0
aI1
aI65535
a.(lp0
I56714
aI1415
aI9265
aI4
aI2
aI7182
aI28182
aI8
aI0
aI0
aI0
aI0
aI0
aI0
aI1
aI65535
a.(lp0
I56724
aI1415
aI9265
aI4
aI2
aI7182
aI28182
aI8
aI0
aI0
aI0
aI0
aI0
aI0
aI1
aI65535
a.(lp0
I56734
aI1415
aI9265
aI4
aI2
aI7182
aI28182
aI8
aI0
aI0
aI0
aI0
aI0
aI0
aI1
aI65535
a.(lp0
I56745
aI1415
aI9265
aI4
aI2
aI7182
aI28182
aI8
aI0
aI0
aI0
aI0
aI0
aI0
aI1
aI65535
a.(lp0
I56756
aI1415
aI9265
aI4
aI2
aI7182
aI28182
aI8
aI0
aI0
aI0
aI0
aI0
aI0
aI1
aI65535
a.