(lp0
I117
aI1415
aI9265
aI4
aI2
aI7182
aI28182
aI8
aI0
aI0
aI0
aI0
aI0
aI0
aI1
aI65535
a.(lp0
I131
aI1415
aI9265
aI4
aI2
aI7182
aI28182
aI8
aI0
aI0
aI0
aI0
aI0
aI0
aI1
aI65535
a.(lp0
I141
aI1415
aI9265
aI4
aI2
aI7182
aI28182
aI8
aI0
aI0
aI0
aI0
aI0
aI0
aI1
aI65535
a.(lp0
I151
aI1415
aI9265
aI4
aI2
aI7182
aI28182
aI8
aI0
aI0
aI0
aI0
aI0
aI0
aI1
aI65535
a.(lp0
I160
aI1415
aI9265
aI4
aI2
aI7182
aI28182
aI8
aI0
aI0
aI0
aI0
aI0
aI0
aI1
aI65535
a.(lp0
I170
aI1415
aI9265
aI4
aI2
aI7182
aI28182
aI8
aI0
aI0
aI0
aI0
aI0
aI0
aI1
aI65535
a.(lp0
I180
aI1415
aI9265
aI4
aI2
aI7182
aI28182
aI8
aI0
aI0
aI0
aI0
aI0
aI0
aI1
aI65535
a.(lp0
I189
aI1415
aI9265
aI4
aI2
aI7182
aI28182
aI8
aI0
aI0
aI0
aI0
aI0
aI0
aI1
aI65535
a.(lp0
I199
aI1415
aI9265
aI4
aI2
aI7182
aI28182
aI8
aI0
aI0
aI0
aI0
aI0
aI0
aI1
aI65535
a.(lp0
I208
aI1415
aI9265
aI4
aI2
aI7182
aI28182
aI8
aI0
aI0
aI0
aI0
aI0
aI0
aI1
aI65535
a.(lp0
I218
aI1415
aI9265
aI4
aI2
aI7182
aI28182
aI8
aI0
aI0
aI0
aI0
aI0
aI0
aI1
aI65535
a.(lp0
I227
aI1415
aI9265
aI4
aI2
aI7182
aI28182
aI8
aI0
aI0
aI0
aI0
aI0
aI0
aI1
aI65535
a.(lp0
I237
aI1415
aI9265
aI4
aI2
aI7182
aI28182
aI8
aI0
aI0
aI0
aI0
aI0
aI0
aI1
aI65535
a.(lp0
I247
aI1415
aI9265
aI4
aI2
aI7182
aI28182
aI8
aI0
aI0
aI0
aI0
aI0
aI0
aI1
aI65535
a.(lp0
I256
aI1415
aI9265
aI4
aI2
aI7182
aI28182
aI8
aI0
aI0
aI0
aI0
aI0
aI0
aI1
aI65535
a.(lp0
I266
aI1415
aI9265
aI4
aI2
aI7182
aI28182
aI8
aI0
aI0
aI0
aI0
aI0
aI0
aI1
aI65535
a.(lp0
I375
aI1415
aI9265
aI4
aI2
aI7182
aI28182
aI8
aI0
aI0
aI0
aI0
aI0
aI0
aI1
aI65535
a.(lp0
I389
aI1415
aI9265
aI4
aI2
aI7182
aI28182
aI8
aI0
aI0
aI0
aI0
aI0
aI0
aI1
aI65535
a.(lp0
I399
aI1415
aI9265
aI4
aI2
aI7182
aI28182
aI8
aI0
aI0
aI0
aI0
aI0
aI0
aI1
aI65535
a.(lp0
I409
aI1415
aI9265
aI4
aI2
aI7182
aI28182
aI8
aI0
aI0
aI0
aI0
aI0
aI0
aI1
aI65535
a.(lp0
I419
aI1415
aI9265
aI4
aI2
aI7182
aI28182
aI8
aI0
aI0
aI0
aI0
aI0
aI0
aI1
aI65535
a.(lp0
I429
aI1415
aI9265
aI4
aI2
aI7182
aI28182
aI8
aI0
aI0
aI0
aI0
aI0
aI0
aI1
aI65535
a.(lp0
I439
aI1415
aI9265
aI4
aI2
aI7182
aI28182
aI8
aI0
aI0
aI0
aI0
aI0
aI0
aI1
aI65535
a.(lp0
I449
aI1415
aI9265
aI4
aI2
aI7182
aI28182
aI8
aI0
aI0
aI0
aI0
aI0
aI0
aI1
aI65535
a.(lp0
I459
aI1415
aI9265
aI4
aI2
aI7182
aI28182
aI8
aI0
aI0
aI0
aI0
aI0
aI0
aI1
aI65535
a.(lp0
I469
aI1415
aI9265
aI4
aI2
aI7182
aI28182
aI8
aI0
aI0
aI0
aI0
aI0
aI0
aI1
aI65535
a.(lp0
I479
aI1415
aI9265
aI4
aI2
aI7182
aI28182
aI8
aI0
aI0
aI0
aI0
aI0
aI0
aI1
aI65535
a.(lp0
I489
aI1415
aI9265
aI4
aI2
aI7182
aI28182
aI8
aI0
aI0
aI0
aI0
aI0
aI0
aI1
aI65535
a.(lp0
I499
aI1415
aI9265
aI4
aI2
aI7182
aI28182
aI8
aI0
aI0
aI0
aI0
aI0
aI0
aI1
aI65535
a.(lp0
I508
aI1415
aI9265
aI4
aI2
aI7182
aI28182
aI8
aI0
aI0
aI0
aI0
aI0
aI0
aI1
aI65535
a.(lp0
I518
aI1415
aI9265
aI4
aI2
aI7182
aI28182
aI8
aI0
aI0
aI0
aI0
aI0
aI0
aI1
aI65535
a.(lp0
I528
aI1415
aI9265
aI4
aI2
aI7182
aI28182
aI8
aI0
aI0
aI0
aI0
aI0
aI0
aI1
aI65535
a.(lp0
I538
aI1415
aI9265
aI4
aI2
aI7182
aI28182
aI8
aI0
aI0
aI0
aI0
aI0
aI0
aI1
aI65535
a.(lp0
I548
aI1415
aI9265
aI4
aI2
aI7182
aI28182
aI8
aI0
aI0
aI0
aI0
aI0
aI0
aI1
aI65535
a.(lp0
I558
aI1415
aI9265
aI4
aI2
aI7182
aI28182
aI8
aI0
aI0
aI0
aI0
aI0
aI0
aI1
aI65535
a.(lp0
I569
aI1415
aI9265
aI4
aI2
aI7182
aI28182
aI8
aI0
aI0
aI0
aI0
aI0
aI0
aI1
aI65535
a.(lp0
I579
aI1415
aI9265
aI4
aI2
aI7182
aI28182
aI8
aI0
aI0
aI0
aI0
aI0
aI0
aI1
aI65535
a.(lp0
I590
aI1415
aI9265
aI4
aI2
aI7182
aI28182
aI8
aI0
aI0
aI0
aI0
aI0
aI0
aI1
aI65535
a.(lp0
I600
aI1415
aI9265
aI4
aI2
aI7182
aI28182
aI8
aI0
aI0
aI0
aI0
aI0
aI0
aI1
aI65535
a.(lp0
I611
aI1415
aI9265
aI4
aI2
aI7182
aI28182
aI8
aI0
aI0
aI0
aI0
aI0
aI0
aI1
aI65535
a.(lp0
I621
aI1415
aI9265
aI4
aI2
aI7182
aI28182
aI8
aI0
aI0
aI0
aI0
aI0
aI0
aI1
aI65535
a.(lp0
I632
aI1415
aI9265
aI4
aI2
aI7182
aI28182
aI8
aI0
aI0
aI0
aI0
aI0
aI0
aI1
aI65535
a.(lp0
I642
aI1415
aI9265
aI4
aI2
aI7182
aI28182
aI8
aI0
aI0
aI0
aI0
aI0
aI0
aI1
aI65535
a.(lp0
I652
aI1415
aI9265
aI4
aI2
aI7182
aI28182
aI8
aI0
aI0
aI0
aI0
aI0
aI0
aI1
aI65535
a.(lp0
I663
aI1415
aI9265
aI4
aI2
aI7182
aI28182
aI8
aI0
aI0
aI0
aI0
aI0
aI0
aI1
aI65535
a.(lp0
I673
aI1415
aI9265
aI4
aI2
aI7182
aI28182
aI8
aI0
aI0
aI0
aI0
aI0
aI0
aI1
aI65535
a.(lp0
I683
aI1415
aI9265
aI4
aI2
aI7182
aI28182
aI8
aI0
aI0
aI0
aI0
aI0
aI0
aI1
aI65535
a.(lp0
I694
aI1415
aI9265
aI4
aI2
aI7182
aI28182
aI8
aI0
aI0
aI0
aI0
aI0
aI0
aI1
aI65535
a.